target datalayout = "e-m:e-p270:32:32-p271:32:32-p272:64:64-i64:64-i128:128-f80:128-n8:16:32:64-S128"
target triple = "x86_64-unknown-linux-gnu"

%"class.icu_75::TransliterationRule" = type { ptr, ptr, ptr, ptr, ptr, %"class.icu_75::UnicodeString", ptr, i32, i32, i32, i8, ptr }
%"class.icu_75::UnicodeString" = type { %"class.icu_75::Replaceable", %"union.icu_75::UnicodeString::StackBufferOrFields" }
%"class.icu_75::Replaceable" = type { %"class.icu_75::UObject" }
%"class.icu_75::UObject" = type { ptr }
%"union.icu_75::UnicodeString::StackBufferOrFields" = type { %struct.anon.0, [32 x i8] }
%struct.anon.0 = type { i16, i32, i32, ptr }

; Function Attrs: mustprogress uwtable
define void @_ZN6icu_7519TransliterationRule7setDataEPKNS_23TransliterationRuleDataE(ptr noundef nonnull align 8 dereferenceable(136) %this, ptr noundef %d) #1 align 2 {
entry:
  %this.addr = alloca ptr, align 8
  %d.addr = alloca ptr, align 8
  store ptr %this, ptr %this.addr, align 8
  store ptr %d, ptr %d.addr, align 8
  %this1 = load ptr, ptr %this.addr, align 8
  %0 = load ptr, ptr %d.addr, align 8
  %data = getelementptr inbounds %"class.icu_75::TransliterationRule", ptr %this1, i32 0, i32 11
  store ptr %0, ptr %data, align 8
  %anteContext = getelementptr inbounds %"class.icu_75::TransliterationRule", ptr %this1, i32 0, i32 1
  %1 = load ptr, ptr %anteContext, align 8
  %cmp = icmp ne ptr %1, null
  br i1 %cmp, label %if.then, label %if.end

if.then:                                          ; preds = %entry
  %anteContext2 = getelementptr inbounds %"class.icu_75::TransliterationRule", ptr %this1, i32 0, i32 1
  %2 = load ptr, ptr %anteContext2, align 8
  %3 = load ptr, ptr %d.addr, align 8
  %vtable = load ptr, ptr %2, align 8
  %vfn = getelementptr inbounds ptr, ptr %vtable, i64 6
  %4 = load ptr, ptr %vfn, align 8
  call void %4(ptr noundef nonnull align 8 dereferenceable(108) %2, ptr noundef %3)
  br label %if.end

if.end:                                           ; preds = %if.then, %entry
  %postContext = getelementptr inbounds %"class.icu_75::TransliterationRule", ptr %this1, i32 0, i32 3
  %5 = load ptr, ptr %postContext, align 8
  %cmp3 = icmp ne ptr %5, null
  br i1 %cmp3, label %if.then4, label %if.end8

if.then4:                                         ; preds = %if.end
  %postContext5 = getelementptr inbounds %"class.icu_75::TransliterationRule", ptr %this1, i32 0, i32 3
  %6 = load ptr, ptr %postContext5, align 8
  %7 = load ptr, ptr %d.addr, align 8
  %vtable6 = load ptr, ptr %6, align 8
  %vfn7 = getelementptr inbounds ptr, ptr %vtable6, i64 6
  %8 = load ptr, ptr %vfn7, align 8
  call void %8(ptr noundef nonnull align 8 dereferenceable(108) %6, ptr noundef %7)
  br label %if.end8

if.end8:                                          ; preds = %if.then4, %if.end
  %key = getelementptr inbounds %"class.icu_75::TransliterationRule", ptr %this1, i32 0, i32 2
  %9 = load ptr, ptr %key, align 8
  %cmp9 = icmp ne ptr %9, null
  br i1 %cmp9, label %if.then10, label %if.end14

if.then10:                                        ; preds = %if.end8
  %key11 = getelementptr inbounds %"class.icu_75::TransliterationRule", ptr %this1, i32 0, i32 2
  %10 = load ptr, ptr %key11, align 8
  %11 = load ptr, ptr %d.addr, align 8
  %vtable12 = load ptr, ptr %10, align 8
  %vfn13 = getelementptr inbounds ptr, ptr %vtable12, i64 6
  %12 = load ptr, ptr %vfn13, align 8
  call void %12(ptr noundef nonnull align 8 dereferenceable(108) %10, ptr noundef %11)
  br label %if.end14

if.end14:                                         ; preds = %if.then10, %if.end8
  %output = getelementptr inbounds %"class.icu_75::TransliterationRule", ptr %this1, i32 0, i32 4
  %13 = load ptr, ptr %output, align 8
  %14 = load ptr, ptr %d.addr, align 8
  %vtable15 = load ptr, ptr %13, align 8
  %vfn16 = getelementptr inbounds ptr, ptr %vtable15, i64 6
  %15 = load ptr, ptr %vfn16, align 8
  call void %15(ptr noundef nonnull align 8 dereferenceable(8) %13, ptr noundef %14)
  ret void
}