; Function Attrs: mustprogress uwtable
define void @_ZN6icu_7519TransliterationRule7setDataEPKNS_23TransliterationRuleDataE(ptr nocapture noundef nonnull align 8 dereferenceable(136) %this, ptr noundef %d) local_unnamed_addr #1 align 2 {
entry:
  %data = getelementptr inbounds i8, ptr %this, i64 128
  store ptr %d, ptr %data, align 8
  %anteContext = getelementptr inbounds i8, ptr %this, i64 8
  %0 = load ptr, ptr %anteContext, align 8
  %cmp.not = icmp eq ptr %0, null
  br i1 %cmp.not, label %if.end, label %if.then

if.then:                                          ; preds = %entry
  %vtable = load ptr, ptr %0, align 8
  %vfn = getelementptr inbounds i8, ptr %vtable, i64 48
  %1 = load ptr, ptr %vfn, align 8
  tail call void %1(ptr noundef nonnull align 8 dereferenceable(108) %0, ptr noundef %d)
  br label %if.end

if.end:                                           ; preds = %if.then, %entry
  %postContext = getelementptr inbounds i8, ptr %this, i64 24
  %2 = load ptr, ptr %postContext, align 8
  %cmp3.not = icmp eq ptr %2, null
  br i1 %cmp3.not, label %if.end8, label %if.then4

if.then4:                                         ; preds = %if.end
  %vtable6 = load ptr, ptr %2, align 8
  %vfn7 = getelementptr inbounds i8, ptr %vtable6, i64 48
  %3 = load ptr, ptr %vfn7, align 8
  tail call void %3(ptr noundef nonnull align 8 dereferenceable(108) %2, ptr noundef %d)
  br label %if.end8

if.end8:                                          ; preds = %if.then4, %if.end
  %key = getelementptr inbounds i8, ptr %this, i64 16
  %4 = load ptr, ptr %key, align 8
  %cmp9.not = icmp eq ptr %4, null
  br i1 %cmp9.not, label %if.end14, label %if.then10

if.then10:                                        ; preds = %if.end8
  %vtable12 = load ptr, ptr %4, align 8
  %vfn13 = getelementptr inbounds i8, ptr %vtable12, i64 48
  %5 = load ptr, ptr %vfn13, align 8
  tail call void %5(ptr noundef nonnull align 8 dereferenceable(108) %4, ptr noundef %d)
  br label %if.end14

if.end14:                                         ; preds = %if.then10, %if.end8
  %output = getelementptr inbounds i8, ptr %this, i64 32
  %6 = load ptr, ptr %output, align 8
  %vtable15 = load ptr, ptr %6, align 8
  %vfn16 = getelementptr inbounds i8, ptr %vtable15, i64 48
  %7 = load ptr, ptr %vfn16, align 8
  tail call void %7(ptr noundef nonnull align 8 dereferenceable(8) %6, ptr noundef %d)
  ret void
}